; Function Attrs: mustprogress uwtable
define hidden noundef i32 @_ZN4cvc58internal7options33stringToJutificationSkolemRlvModeERKNSt7__cxx1112basic_stringIcSt11char_traitsIcESaIcEEE(ptr noundef nonnull align 8 dereferenceable(32) %optarg) local_unnamed_addr #3 personality ptr @__gxx_personality_v0 {
entry:
  %ref.tmp = alloca %"class.std::__cxx11::basic_string", align 8
  %ref.tmp9 = alloca %"class.std::__cxx11::basic_string", align 8
  %ref.tmp10 = alloca %"class.std::__cxx11::basic_string", align 8
  %ref.tmp11 = alloca %"class.std::allocator", align 1
  %call.i = tail call noundef i32 @_ZNKSt7__cxx1112basic_stringIcSt11char_traitsIcESaIcEE7compareEPKc(ptr noundef nonnull align 8 dereferenceable(32) %optarg, ptr noundef nonnull @.str.14) #12
  %cmp.i = icmp eq i32 %call.i, 0
  br i1 %cmp.i, label %return, label %if.else

if.else:                                          ; preds = %entry
  %call.i7 = tail call noundef i32 @_ZNKSt7__cxx1112basic_stringIcSt11char_traitsIcESaIcEE7compareEPKc(ptr noundef nonnull align 8 dereferenceable(32) %optarg, ptr noundef nonnull @.str.15) #12
  %cmp.i8 = icmp eq i32 %call.i7, 0
  br i1 %cmp.i8, label %return, label %if.else3

if.else3:                                         ; preds = %if.else
  %call.i9 = tail call noundef i32 @_ZNKSt7__cxx1112basic_stringIcSt11char_traitsIcESaIcEE7compareEPKc(ptr noundef nonnull align 8 dereferenceable(32) %optarg, ptr noundef nonnull @.str.5) #12
  %cmp.i10 = icmp eq i32 %call.i9, 0
  br i1 %cmp.i10, label %if.then5, label %if.end8

if.then5:                                         ; preds = %if.else3
  %call6 = tail call noundef nonnull align 8 dereferenceable(8) ptr @_ZStlsISt11char_traitsIcEERSt13basic_ostreamIcT_ES5_PKc(ptr noundef nonnull align 8 dereferenceable(8) @_ZSt4cerr, ptr noundef nonnull @.str.16)
  tail call void @exit(i32 noundef 1) #11
  unreachable

if.end8:                                          ; preds = %if.else3
  %exception = tail call ptr @__cxa_allocate_exception(i64 40) #12
  call void @_ZNSaIcEC1Ev(ptr noundef nonnull align 1 dereferenceable(1) %ref.tmp11) #12
  invoke void @_ZNSt7__cxx1112basic_stringIcSt11char_traitsIcESaIcEEC2IS3_EEPKcRKS3_(ptr noundef nonnull align 8 dereferenceable(32) %ref.tmp10, ptr noundef nonnull @.str.17, ptr noundef nonnull align 1 dereferenceable(1) %ref.tmp11)
          to label %invoke.cont unwind label %ehcleanup19.thread

invoke.cont:                                      ; preds = %if.end8
  %call.i1112 = invoke noundef nonnull align 8 dereferenceable(32) ptr @_ZNSt7__cxx1112basic_stringIcSt11char_traitsIcESaIcEE6appendERKS4_(ptr noundef nonnull align 8 dereferenceable(32) %ref.tmp10, ptr noundef nonnull align 8 dereferenceable(32) %optarg)
          to label %invoke.cont13 unwind label %lpad12

invoke.cont13:                                    ; preds = %invoke.cont
  call void @_ZNSt7__cxx1112basic_stringIcSt11char_traitsIcESaIcEEC1EOS4_(ptr noundef nonnull align 8 dereferenceable(32) %ref.tmp9, ptr noundef nonnull align 8 dereferenceable(32) %call.i1112) #12
  %call.i1314 = invoke noundef nonnull align 8 dereferenceable(32) ptr @_ZNSt7__cxx1112basic_stringIcSt11char_traitsIcESaIcEE6appendEPKc(ptr noundef nonnull align 8 dereferenceable(32) %ref.tmp9, ptr noundef nonnull @.str.18)
          to label %invoke.cont15 unwind label %lpad14

invoke.cont15:                                    ; preds = %invoke.cont13
  call void @_ZNSt7__cxx1112basic_stringIcSt11char_traitsIcESaIcEEC1EOS4_(ptr noundef nonnull align 8 dereferenceable(32) %ref.tmp, ptr noundef nonnull align 8 dereferenceable(32) %call.i1314) #12
  invoke void @_ZN4cvc58internal15OptionExceptionC2ERKNSt7__cxx1112basic_stringIcSt11char_traitsIcESaIcEEE(ptr noundef nonnull align 8 dereferenceable(40) %exception, ptr noundef nonnull align 8 dereferenceable(32) %ref.tmp)
          to label %invoke.cont17 unwind label %lpad16

invoke.cont17:                                    ; preds = %invoke.cont15
  invoke void @__cxa_throw(ptr nonnull %exception, ptr nonnull @_ZTIN4cvc58internal15OptionExceptionE, ptr nonnull @_ZN4cvc58internal15OptionExceptionD2Ev) #13
          to label %unreachable unwind label %lpad16

ehcleanup19.thread:                               ; preds = %if.end8
  %0 = landingpad { ptr, i32 }
          cleanup
  call void @_ZNSaIcED1Ev(ptr noundef nonnull align 1 dereferenceable(1) %ref.tmp11) #12
  br label %cleanup.action

lpad12:                                           ; preds = %invoke.cont
  %1 = landingpad { ptr, i32 }
          cleanup
  br label %ehcleanup19

lpad14:                                           ; preds = %invoke.cont13
  %2 = landingpad { ptr, i32 }
          cleanup
  br label %ehcleanup

lpad16:                                           ; preds = %invoke.cont17, %invoke.cont15
  %cleanup.isactive.0 = phi i1 [ false, %invoke.cont17 ], [ true, %invoke.cont15 ]
  %3 = landingpad { ptr, i32 }
          cleanup
  call void @_ZNSt7__cxx1112basic_stringIcSt11char_traitsIcESaIcEED1Ev(ptr noundef nonnull align 8 dereferenceable(32) %ref.tmp) #12
  br label %ehcleanup

ehcleanup:                                        ; preds = %lpad16, %lpad14
  %.pn = phi { ptr, i32 } [ %3, %lpad16 ], [ %2, %lpad14 ]
  %cleanup.isactive.1 = phi i1 [ %cleanup.isactive.0, %lpad16 ], [ true, %lpad14 ]
  call void @_ZNSt7__cxx1112basic_stringIcSt11char_traitsIcESaIcEED1Ev(ptr noundef nonnull align 8 dereferenceable(32) %ref.tmp9) #12
  br label %ehcleanup19

ehcleanup19:                                      ; preds = %lpad12, %ehcleanup
  %.pn.pn = phi { ptr, i32 } [ %.pn, %ehcleanup ], [ %1, %lpad12 ]
  %cleanup.isactive.2 = phi i1 [ %cleanup.isactive.1, %ehcleanup ], [ true, %lpad12 ]
  call void @_ZNSt7__cxx1112basic_stringIcSt11char_traitsIcESaIcEED1Ev(ptr noundef nonnull align 8 dereferenceable(32) %ref.tmp10) #12
  call void @_ZNSaIcED1Ev(ptr noundef nonnull align 1 dereferenceable(1) %ref.tmp11) #12
  br i1 %cleanup.isactive.2, label %cleanup.action, label %eh.resume

cleanup.action:                                   ; preds = %ehcleanup19.thread, %ehcleanup19
  %.pn.pn.pn18 = phi { ptr, i32 } [ %0, %ehcleanup19.thread ], [ %.pn.pn, %ehcleanup19 ]
  call void @__cxa_free_exception(ptr %exception) #12
  br label %eh.resume

return:                                           ; preds = %if.else, %entry
  %retval.0 = phi i32 [ 0, %entry ], [ 1, %if.else ]
  ret i32 %retval.0

eh.resume:                                        ; preds = %ehcleanup19, %cleanup.action
  %.pn.pn.pn17 = phi { ptr, i32 } [ %.pn.pn, %ehcleanup19 ], [ %.pn.pn.pn18, %cleanup.action ]
  resume { ptr, i32 } %.pn.pn.pn17

unreachable:                                      ; preds = %invoke.cont17
  unreachable
}